; Function Attrs: mustprogress uwtable
define void @_ZN7testing8internal35DefaultGlobalTestPartResultReporter20ReportTestPartResultERKNS_14TestPartResultE(ptr noundef nonnull readonly align 8 captures(none) dereferenceable(16) %0, ptr noundef nonnull align 8 dereferenceable(112) %1) unnamed_addr #3 align 2 {
  %3 = getelementptr inbounds nuw i8, ptr %0, i64 8
  %4 = load ptr, ptr %3, align 8, !tbaa !770
  %5 = getelementptr inbounds nuw i8, ptr %4, i64 368
  %6 = load ptr, ptr %5, align 8, !tbaa !52
  %.not.i = icmp eq ptr %6, null
  br i1 %.not.i, label %9, label %7

7:                                                ; preds = %2
  %8 = getelementptr inbounds nuw i8, ptr %6, i64 144
  br label %_ZN7testing8internal12UnitTestImpl19current_test_resultEv.exit

9:                                                ; preds = %2
  %10 = getelementptr inbounds nuw i8, ptr %4, i64 360
  %11 = load ptr, ptr %10, align 8, !tbaa !771
  %.not4.i = icmp eq ptr %11, null
  br i1 %.not4.i, label %14, label %12

12:                                               ; preds = %9
  %13 = getelementptr inbounds nuw i8, ptr %11, i64 136
  br label %_ZN7testing8internal12UnitTestImpl19current_test_resultEv.exit

14:                                               ; preds = %9
  %15 = getelementptr inbounds nuw i8, ptr %4, i64 376
  br label %_ZN7testing8internal12UnitTestImpl19current_test_resultEv.exit

_ZN7testing8internal12UnitTestImpl19current_test_resultEv.exit: ; preds = %7, %12, %14
  %.0.i = phi ptr [ %8, %7 ], [ %13, %12 ], [ %15, %14 ]
  %16 = getelementptr inbounds nuw i8, ptr %.0.i, i64 64
  %17 = load ptr, ptr %16, align 8, !tbaa !605
  %18 = getelementptr inbounds nuw i8, ptr %.0.i, i64 72
  %19 = load ptr, ptr %18, align 8, !tbaa !606
  %.not.i.i = icmp eq ptr %17, %19
  br i1 %.not.i.i, label %23, label %20

20:                                               ; preds = %_ZN7testing8internal12UnitTestImpl19current_test_resultEv.exit
  tail call void @_ZN7testing14TestPartResultC2ERKS0_(ptr noundef nonnull align 8 dereferenceable(112) %17, ptr noundef nonnull align 8 dereferenceable(112) %1)
  %21 = load ptr, ptr %16, align 8, !tbaa !605
  %22 = getelementptr inbounds nuw i8, ptr %21, i64 112
  store ptr %22, ptr %16, align 8, !tbaa !605
  br label %_ZN7testing10TestResult17AddTestPartResultERKNS_14TestPartResultE.exit

23:                                               ; preds = %_ZN7testing8internal12UnitTestImpl19current_test_resultEv.exit
  %24 = getelementptr inbounds nuw i8, ptr %.0.i, i64 56
  tail call void @_ZNSt6vectorIN7testing14TestPartResultESaIS1_EE17_M_realloc_insertIJRKS1_EEEvN9__gnu_cxx17__normal_iteratorIPS1_S3_EEDpOT_(ptr noundef nonnull align 8 dereferenceable(24) %24, ptr %17, ptr noundef nonnull align 8 dereferenceable(112) %1)
  br label %_ZN7testing10TestResult17AddTestPartResultERKNS_14TestPartResultE.exit

_ZN7testing10TestResult17AddTestPartResultERKNS_14TestPartResultE.exit: ; preds = %20, %23
  %25 = load ptr, ptr %3, align 8, !tbaa !770
  %26 = getelementptr inbounds nuw i8, ptr %25, i64 504
  %27 = load ptr, ptr %26, align 8, !tbaa !243
  %28 = load ptr, ptr %27, align 8, !tbaa !32
  %29 = getelementptr inbounds nuw i8, ptr %28, i64 80
  %30 = load ptr, ptr %29, align 8
  tail call void %30(ptr noundef nonnull align 8 dereferenceable(8) %27, ptr noundef nonnull align 8 dereferenceable(112) %1)
  ret void
}